target datalayout = "e-m:e-p270:32:32-p271:32:32-p272:64:64-i64:64-i128:128-f80:128-n8:16:32:64-S128"
target triple = "x86_64-pc-linux-gnu"

%struct.prov_aria_ccm_ctx_st = type { %struct.prov_ccm_st, %union.anon.0 }
%struct.prov_ccm_st = type { i8, i64, i64, i64, i64, i64, [16 x i8], [16 x i8], %struct.ccm128_context, ptr, ptr }
%struct.ccm128_context = type { %union.anon, %union.anon, i64, ptr, ptr }
%union.anon = type { [2 x i64] }
%union.anon.0 = type { double, [272 x i8] }

@.str = private unnamed_addr constant [63 x i8] c"../openssl/providers/implementations/ciphers/cipher_aria_ccm.c\00", align 1

; Function Attrs: nounwind uwtable
define internal ptr @aria_ccm_newctx(ptr noundef %0, i64 noundef %1) #0 {
  %3 = alloca ptr, align 8
  %4 = alloca ptr, align 8
  %5 = alloca i64, align 8
  %6 = alloca ptr, align 8
  %7 = alloca i32, align 4
  store ptr %0, ptr %4, align 8, !tbaa !3
  store i64 %1, ptr %5, align 8, !tbaa !11
  call void @llvm.lifetime.start.p0(i64 8, ptr %6) #3
  %8 = call i32 @ossl_prov_is_running()
  %9 = icmp ne i32 %8, 0
  br i1 %9, label %11, label %10

10:                                               ; preds = %2
  store ptr null, ptr %3, align 8
  store i32 1, ptr %7, align 4
  br label %23

11:                                               ; preds = %2
  %12 = call noalias ptr @CRYPTO_zalloc(i64 noundef 432, ptr noundef @.str, i32 noundef 25)
  store ptr %12, ptr %6, align 8, !tbaa !7
  %13 = load ptr, ptr %6, align 8, !tbaa !7
  %14 = icmp ne ptr %13, null
  br i1 %14, label %15, label %21

15:                                               ; preds = %11
  %16 = load ptr, ptr %6, align 8, !tbaa !7
  %17 = getelementptr inbounds nuw %struct.prov_aria_ccm_ctx_st, ptr %16, i32 0, i32 0
  %18 = load i64, ptr %5, align 8, !tbaa !11
  %19 = load i64, ptr %5, align 8, !tbaa !11
  %20 = call ptr @ossl_prov_aria_hw_ccm(i64 noundef %19)
  call void @ossl_ccm_initctx(ptr noundef %17, i64 noundef %18, ptr noundef %20)
  br label %21

21:                                               ; preds = %15, %11
  %22 = load ptr, ptr %6, align 8, !tbaa !7
  store ptr %22, ptr %3, align 8
  store i32 1, ptr %7, align 4
  br label %23

23:                                               ; preds = %21, %10
  call void @llvm.lifetime.end.p0(i64 8, ptr %6) #3
  %24 = load ptr, ptr %3, align 8
  ret ptr %24
}

; Function Attrs: nounwind uwtable
define internal ptr @aria256ccm_newctx(ptr noundef %0) #0 {
  %2 = alloca ptr, align 8
  store ptr %0, ptr %2, align 8, !tbaa !3
  %3 = load ptr, ptr %2, align 8, !tbaa !3
  %4 = call ptr @aria_ccm_newctx(ptr noundef %3, i64 noundef 256)
  ret ptr %4
}