; Function Attrs: nounwind uwtable
define internal ptr @aria256ccm_newctx(ptr readnone captures(none) %0) #0 {
  %2 = tail call i32 @ossl_prov_is_running() #2
  %.not.i = icmp eq i32 %2, 0
  br i1 %.not.i, label %aria_ccm_newctx.exit, label %3

3:                                                ; preds = %1
  %4 = tail call noalias ptr @CRYPTO_zalloc(i64 noundef 432, ptr noundef nonnull @.str, i32 noundef 25) #2
  %.not6.i = icmp eq ptr %4, null
  br i1 %.not6.i, label %aria_ccm_newctx.exit, label %5

5:                                                ; preds = %3
  %6 = tail call ptr @ossl_prov_aria_hw_ccm(i64 noundef 256) #2
  tail call void @ossl_ccm_initctx(ptr noundef nonnull %4, i64 noundef 256, ptr noundef %6) #2
  br label %aria_ccm_newctx.exit

aria_ccm_newctx.exit:                             ; preds = %1, %3, %5
  %.0.i = phi ptr [ null, %1 ], [ %4, %5 ], [ null, %3 ]
  ret ptr %.0.i
}